; Function Attrs: mustprogress uwtable
define hidden void @_Z11ParseExtrasP10aiMetadataRKN5glTF26ExtrasE(ptr noundef %metadata, ptr nocapture noundef nonnull readonly align 8 dereferenceable(24) %extras) local_unnamed_addr #4 {
entry:
  %0 = load ptr, ptr %extras, align 8
  %_M_finish.i = getelementptr inbounds i8, ptr %extras, i64 8
  %1 = load ptr, ptr %_M_finish.i, align 8
  %cmp.i.not4 = icmp eq ptr %0, %1
  br i1 %cmp.i.not4, label %for.end, label %for.body

for.body:                                         ; preds = %entry, %for.body
  %__begin1.sroa.0.05 = phi ptr [ %incdec.ptr.i, %for.body ], [ %0, %entry ]
  tail call void @_Z15ParseExtensionsP10aiMetadataRKN5glTF215CustomExtensionE(ptr noundef %metadata, ptr noundef nonnull align 8 dereferenceable(160) %__begin1.sroa.0.05)
  %incdec.ptr.i = getelementptr inbounds i8, ptr %__begin1.sroa.0.05, i64 160
  %cmp.i.not = icmp eq ptr %incdec.ptr.i, %1
  br i1 %cmp.i.not, label %for.end, label %for.body

for.end:                                          ; preds = %for.body, %entry
  ret void
}